Certificate:
    Data:
        Version: 3 (0x2)
        Serial Number:
            8f:b0:fb:e5:0b:46:cc:4f
        Signature Algorithm: sha1WithRSAEncryption
        Issuer: OU=Root Certification Authority, CN=ca1.pem
        Validity
            Not Before: Dec  4 13:26:12 2013 GMT
            Not After : Jun  2 13:26:12 2033 GMT
        Subject: OU=Root Certification Authority, CN=ca1.pem
        Subject Public Key Info:
            Public Key Algorithm: rsaEncryption
                Public-Key: (4096 bit)
                Modulus:
                    00:d0:24:08:5e:8c:24:9f:df:fd:8f:f9:84:c0:d9:
                    88:4c:94:6f:e0:78:64:6d:b8:c6:4a:71:15:1d:ad:
                    8a:34:1d:64:03:f3:8f:cb:fb:2b:b9:bf:15:3a:18:
                    32:71:0b:89:29:3a:6a:65:29:43:d2:b7:ed:0b:02:
                    6f:7e:94:10:67:3e:38:f3:2f:d6:ad:94:e1:04:45:
                    80:1a:89:3d:20:3b:45:b7:ee:f5:b5:39:f3:1d:3a:
                    72:e0:ab:86:99:46:0f:0f:50:90:e2:28:b8:9d:1a:
                    61:84:ed:ca:fb:9f:15:e5:a1:2a:2f:01:de:c6:a6:
                    4a:4e:3a:5a:b8:a4:cf:8f:90:60:b7:b1:7d:ea:01:
                    ad:d9:0d:01:64:92:a1:3f:b0:24:eb:ac:6e:ff:fb:
                    2c:65:fd:dd:bc:4a:95:ba:37:a0:ed:ed:13:e6:49:
                    a8:4a:4e:6c:a0:92:40:d8:74:5f:3f:32:79:27:9e:
                    28:a0:0c:53:53:23:18:db:82:16:b8:72:89:8a:08:
                    2c:e0:67:71:d4:5d:32:bc:97:89:c5:14:55:2d:b5:
                    ce:e4:28:94:21:38:f9:42:0e:e7:bc:45:8d:43:54:
                    28:93:75:de:2d:de:83:e2:f5:8a:f1:f7:80:e6:ad:
                    16:84:fd:2e:59:47:96:71:e9:49:08:72:77:d7:32:
                    08:2b:a9:a0:7e:bc:5d:a6:b6:2e:44:5e:9d:67:cd:
                    c1:ec:0c:44:ec:47:2d:c3:f4:d2:8e:08:05:03:77:
                    72:0b:a2:b6:f4:da:32:f3:84:54:ad:46:85:82:9a:
                    08:79:4e:97:35:2d:14:35:22:35:51:6e:c8:73:8c:
                    9a:25:90:ef:c1:cf:8b:40:a6:5e:a4:23:d0:28:19:
                    4e:56:b4:8b:39:74:e8:5a:57:ca:28:0a:bb:aa:e3:
                    54:3a:18:2f:31:b9:41:53:3e:bf:a4:f0:8b:3b:85:
                    bb:c0:7d:fd:5a:08:b9:d8:84:51:c7:23:27:44:82:
                    c1:af:e4:f2:db:99:46:a1:7f:35:03:f4:1a:a1:3a:
                    b9:55:a0:bf:6b:c9:7f:9f:66:ac:10:c4:99:12:8f:
                    72:b8:3d:39:85:bf:9f:e1:ea:e2:42:c6:e1:e7:58:
                    07:1e:0c:c7:43:1a:47:54:a6:77:59:59:20:15:98:
                    e7:30:4e:94:23:ef:c2:96:bd:ca:ab:ea:03:b1:cf:
                    76:46:1f:d1:45:85:94:a0:f2:74:d4:50:8e:23:24:
                    ca:79:fc:8c:a8:36:61:1c:40:67:fa:b2:f5:59:e9:
                    fa:f2:73:11:52:0e:3c:db:42:21:76:9a:48:24:2e:
                    f2:64:84:52:c2:57:6b:4d:2a:1c:15:8c:00:cf:94:
                    9e:b0:c3
                Exponent: 65537 (0x10001)
        X509v3 extensions:
            X509v3 Subject Key Identifier: 
                99:77:DD:22:D3:28:B4:E6:7D:40:1D:ED:DB:7F:BD:3C:00:D3:88:28
            X509v3 Authority Key Identifier: 
                keyid:99:77:DD:22:D3:28:B4:E6:7D:40:1D:ED:DB:7F:BD:3C:00:D3:88:28

            X509v3 Basic Constraints: 
                CA:TRUE
    Signature Algorithm: sha1WithRSAEncryption
        7b:32:1c:c2:21:13:f6:c2:0c:30:e4:59:66:28:2f:69:de:50:
        c2:e2:c9:f3:b6:36:2f:a4:a9:34:1a:9f:e4:4c:e5:a1:f0:be:
        a7:e0:a4:f7:e2:a2:36:01:9a:68:4b:1f:a7:90:48:a9:c4:35:
        d6:47:86:d3:f0:f4:2c:55:f2:2b:39:61:ef:82:32:ea:aa:82:
        ec:20:7d:37:2f:ba:b4:a7:a6:86:92:72:dc:bc:27:73:d4:c3:
        f0:bc:2f:16:0d:69:63:5e:f8:78:5c:b7:98:bb:b4:4d:cc:47:
        f8:36:57:86:5c:bb:55:1b:7b:cd:32:8f:e7:bc:e0:fc:32:5a:
        ed:5c:c5:5b:1f:c0:c3:9a:54:8a:92:eb:97:c0:9f:24:f2:7f:
        df:e5:a5:f5:50:98:6c:65:31:40:df:4f:f1:47:f8:86:6f:4c:
        a1:6a:ef:ab:2a:1f:f1:79:04:fd:2d:80:ca:b3:f3:98:f2:7d:
        2b:1a:43:3c:ad:30:59:bb:ea:34:5e:29:e3:76:4d:35:ff:0c:
        c1:73:5c:cb:9f:48:72:87:f0:d6:96:c1:6c:a1:d7:9a:92:b4:
        46:2f:f0:ef:61:8b:02:93:ef:40:40:33:29:8c:c7:20:77:ca:
        7f:8a:25:3e:10:0a:e0:23:c9:b5:6d:6b:15:89:56:2a:f2:d2:
        75:52:15:80:4c:04:35:42:ac:bc:a0:1f:48:e4:cc:d8:62:88:
        5e:5c:a2:aa:9e:d4:63:77:46:d5:51:5d:00:2c:fc:99:e2:c3:
        31:a6:19:22:db:66:8c:37:35:c4:7d:5f:fc:ee:0f:a2:d3:cd:
        2d:90:49:af:35:4a:47:96:6b:3e:91:6c:56:4b:29:39:01:f2:
        17:1d:30:bb:74:0b:9d:8d:54:c3:37:1e:32:cb:b8:99:85:88:
        00:be:e2:21:85:fc:42:d2:ab:bf:34:99:96:46:7f:28:6e:4c:
        c9:dc:f3:9d:37:9c:f6:1e:7e:bb:9e:9a:66:02:df:3f:68:1f:
        5b:a3:38:dd:fe:c6:93:7b:1f:98:76:54:79:c1:8a:0b:ea:91:
        00:e5:7c:9d:94:93:f1:e4:44:70:3f:81:8f:12:32:13:10:2a:
        5f:81:b4:e7:40:ea:16:e9:23:f8:b7:f4:c9:70:24:08:4a:45:
        50:36:48:e1:1a:25:fa:af:f3:17:26:34:43:22:aa:7c:86:45:
        f8:b7:36:5a:44:16:51:98:84:df:e2:50:33:b5:ff:42:61:8d:
        e5:ca:44:b0:06:12:ad:01:90:c6:fe:90:25:db:ab:42:b8:2a:
        d1:c8:f2:5f:ad:a0:21:df:a3:99:96:d4:1d:87:1e:45:42:a1:
        85:5f:81:19:a5:db:5c:3e
-----BEGIN CERTIFICATE-----
MIIFRTCCAy2gAwIBAgIJAI+w++ULRsxPMA0GCSqGSIb3DQEBBQUAMDkxJTAjBgNV
BAsMHFJvb3QgQ2VydGlmaWNhdGlvbiBBdXRob3JpdHkxEDAOBgNVBAMMB2NhMS5w
ZW0wHhcNMTMxMjA0MTMyNjEyWhcNMzMwNjAyMTMyNjEyWjA5MSUwIwYDVQQLDBxS
b290IENlcnRpZmljYXRpb24gQXV0aG9yaXR5MRAwDgYDVQQDDAdjYTEucGVtMIIC
IjANBgkqhkiG9w0BAQEFAAOCAg8AMIICCgKCAgEA0CQIXowkn9/9j/mEwNmITJRv
4HhkbbjGSnEVHa2KNB1kA/OPy/srub8VOhgycQuJKTpqZSlD0rftCwJvfpQQZz44
8y/WrZThBEWAGok9IDtFt+71tTnzHTpy4KuGmUYPD1CQ4ii4nRphhO3K+58V5aEq
LwHexqZKTjpauKTPj5Bgt7F96gGt2Q0BZJKhP7Ak66xu//ssZf3dvEqVujeg7e0T
5kmoSk5soJJA2HRfPzJ5J54ooAxTUyMY24IWuHKJiggs4Gdx1F0yvJeJxRRVLbXO
5CiUITj5Qg7nvEWNQ1Qok3XeLd6D4vWK8feA5q0WhP0uWUeWcelJCHJ31zIIK6mg
frxdprYuRF6dZ83B7AxE7Ectw/TSjggFA3dyC6K29Noy84RUrUaFgpoIeU6XNS0U
NSI1UW7Ic4yaJZDvwc+LQKZepCPQKBlOVrSLOXToWlfKKAq7quNUOhgvMblBUz6/
pPCLO4W7wH39Wgi52IRRxyMnRILBr+Ty25lGoX81A/QaoTq5VaC/a8l/n2asEMSZ
Eo9yuD05hb+f4eriQsbh51gHHgzHQxpHVKZ3WVkgFZjnME6UI+/Clr3Kq+oDsc92
Rh/RRYWUoPJ01FCOIyTKefyMqDZhHEBn+rL1Wen68nMRUg4820IhdppIJC7yZIRS
wldrTSocFYwAz5SesMMCAwEAAaNQME4wHQYDVR0OBBYEFJl33SLTKLTmfUAd7dt/
vTwA04goMB8GA1UdIwQYMBaAFJl33SLTKLTmfUAd7dt/vTwA04goMAwGA1UdEwQF
MAMBAf8wDQYJKoZIhvcNAQEFBQADggIBAHsyHMIhE/bCDDDkWWYoL2neUMLiyfO2
Ni+kqTQan+RM5aHwvqfgpPfiojYBmmhLH6eQSKnENdZHhtPw9CxV8is5Ye+CMuqq
guwgfTcvurSnpoaScty8J3PUw/C8LxYNaWNe+Hhct5i7tE3MR/g2V4Zcu1Ube80y
j+e84PwyWu1cxVsfwMOaVIqS65fAnyTyf9/lpfVQmGxlMUDfT/FH+IZvTKFq76sq
H/F5BP0tgMqz85jyfSsaQzytMFm76jReKeN2TTX/DMFzXMufSHKH8NaWwWyh15qS
tEYv8O9hiwKT70BAMymMxyB3yn+KJT4QCuAjybVtaxWJViry0nVSFYBMBDVCrLyg
H0jkzNhiiF5coqqe1GN3RtVRXQAs/JniwzGmGSLbZow3NcR9X/zuD6LTzS2QSa81
SkeWaz6RbFZLKTkB8hcdMLt0C52NVMM3HjLLuJmFiAC+4iGF/ELSq780mZZGfyhu
TMnc8503nPYefruemmYC3z9oH1ujON3+xpN7H5h2VHnBigvqkQDlfJ2Uk/HkRHA/
gY8SMhMQKl+BtOdA6hbpI/i39MlwJAhKRVA2SOEaJfqv8xcmNEMiqnyGRfi3NlpE
FlGYhN/iUDO1/0JhjeXKRLAGEq0BkMb+kCXbq0K4KtHI8l+toCHfo5mW1B2HHkVC
oYVfgRml21w+
-----END CERTIFICATE-----
Certificate:
    Data:
        Version: 3 (0x2)
        Serial Number:
            b6:36:ad:93:f7:5f:26:91
        Signature Algorithm: sha1WithRSAEncryption
        Issuer: OU=Root Certification Authority, CN=ca2.pem
        Validity
            Not Before: Dec  4 13:26:13 2013 GMT
            Not After : Jun  2 13:26:13 2033 GMT
        Subject: OU=Root Certification Authority, CN=ca2.pem
        Subject Public Key Info:
            Public Key Algorithm: rsaEncryption
                Public-Key: (2048 bit)
                Modulus:
                    00:ea:19:0b:81:0f:b8:f1:1b:8c:a3:d6:ca:43:06:
                    2d:b5:d3:45:95:cd:cb:cc:da:f4:4b:d0:da:77:2a:
                    60:53:47:61:aa:79:99:f8:24:5c:5f:e6:57:72:c8:
                    22:6d:3c:6f:a8:45:a3:5f:f9:c3:0d:76:bf:6c:a7:
                    f9:25:be:d2:a2:08:cb:8b:4e:00:41:e8:40:88:86:
                    a2:63:a3:c1:35:f8:82:ea:7e:53:8c:c9:3f:95:33:
                    d6:24:51:22:e8:b9:b1:1b:43:67:49:aa:57:4a:d5:
                    ad:0c:11:bf:c9:58:d7:24:97:51:34:9a:30:9a:d1:
                    f0:ec:2d:7b:1c:ef:fd:af:05:e4:69:09:81:86:8d:
                    8e:dc:33:8d:1f:4d:20:de:d1:8d:5e:d7:de:fc:e3:
                    7e:b2:0a:0b:31:23:ff:de:ff:61:44:3f:72:ec:48:
                    ca:01:94:2e:8e:3f:cf:fe:af:b3:19:da:e8:15:39:
                    66:15:db:a4:5a:c0:38:8e:2d:94:31:96:a7:08:fc:
                    aa:03:2e:e2:ab:f9:53:fc:8a:42:ef:2c:d9:1d:cd:
                    81:b9:9a:fc:3e:08:c3:63:64:57:dd:18:9e:61:52:
                    ab:43:fc:af:7a:3d:8d:99:52:73:0d:86:a7:d7:01:
                    34:2d:cd:e6:c4:cc:99:01:dd:c7:cf:b1:64:8f:2c:
                    d5:73
                Exponent: 65537 (0x10001)
        X509v3 extensions:
            X509v3 Subject Key Identifier: 
                68:C1:E8:F8:2B:27:CC:15:73:17:5E:E9:96:58:B0:1E:D8:9C:8D:9E
            X509v3 Authority Key Identifier: 
                keyid:68:C1:E8:F8:2B:27:CC:15:73:17:5E:E9:96:58:B0:1E:D8:9C:8D:9E

            X509v3 Basic Constraints: 
                CA:TRUE
    Signature Algorithm: sha1WithRSAEncryption
        41:39:9e:d2:fb:82:4f:bc:92:56:d7:de:43:e4:94:72:60:a2:
        0e:0c:50:9a:8a:fe:f2:74:63:36:4c:a8:1c:49:bc:aa:82:ae:
        39:ff:69:67:46:04:f9:17:b2:da:b1:cd:14:f6:7e:0a:e7:87:
        2d:87:98:59:81:91:93:e6:61:f4:56:6e:7d:22:79:3d:a4:73:
        d5:00:a2:1a:8f:5c:cb:e6:53:04:55:a3:cc:5b:de:da:8e:63:
        49:72:d8:10:fd:be:dc:e3:50:83:06:4c:da:96:d3:37:dd:3e:
        f5:41:08:0b:63:3d:47:08:c1:0b:be:4c:87:28:44:9f:72:fd:
        2a:aa:44:2b:cd:a5:a3:11:1e:01:e0:f5:c8:df:88:ed:8c:07:
        fa:99:dd:dd:2a:67:80:70:81:d3:1d:13:40:de:a1:25:e1:f3:
        05:7d:97:b1:c4:d6:17:01:1c:57:a9:70:4c:22:31:45:6a:9e:
        4c:d4:14:41:8a:22:d6:a5:49:6b:4b:8a:4d:80:80:ab:1d:b4:
        8f:71:6f:78:c8:a2:52:cf:36:7c:f3:0f:f7:7d:19:22:31:ec:
        88:f2:16:61:ff:a0:6b:4c:39:57:1d:a2:ce:5a:9e:dd:a7:4b:
        31:52:80:9b:ca:fa:83:43:92:91:03:2a:d1:74:b7:b6:08:9b:
        fa:88:ef:e1
-----BEGIN CERTIFICATE-----
MIIDRTCCAi2gAwIBAgIJALY2rZP3XyaRMA0GCSqGSIb3DQEBBQUAMDkxJTAjBgNV
BAsMHFJvb3QgQ2VydGlmaWNhdGlvbiBBdXRob3JpdHkxEDAOBgNVBAMMB2NhMi5w
ZW0wHhcNMTMxMjA0MTMyNjEzWhcNMzMwNjAyMTMyNjEzWjA5MSUwIwYDVQQLDBxS
b290IENlcnRpZmljYXRpb24gQXV0aG9yaXR5MRAwDgYDVQQDDAdjYTIucGVtMIIB
IjANBgkqhkiG9w0BAQEFAAOCAQ8AMIIBCgKCAQEA6hkLgQ+48RuMo9bKQwYttdNF
lc3LzNr0S9DadypgU0dhqnmZ+CRcX+ZXcsgibTxvqEWjX/nDDXa/bKf5Jb7SogjL
i04AQehAiIaiY6PBNfiC6n5TjMk/lTPWJFEi6LmxG0NnSapXStWtDBG/yVjXJJdR
NJowmtHw7C17HO/9rwXkaQmBho2O3DONH00g3tGNXtfe/ON+sgoLMSP/3v9hRD9y
7EjKAZQujj/P/q+zGdroFTlmFdukWsA4ji2UMZanCPyqAy7iq/lT/IpC7yzZHc2B
uZr8PgjDY2RX3RieYVKrQ/yvej2NmVJzDYan1wE0Lc3mxMyZAd3Hz7FkjyzVcwID
AQABo1AwTjAdBgNVHQ4EFgQUaMHo+CsnzBVzF17plliwHticjZ4wHwYDVR0jBBgw
FoAUaMHo+CsnzBVzF17plliwHticjZ4wDAYDVR0TBAUwAwEB/zANBgkqhkiG9w0B
AQUFAAOCAQEAQTme0vuCT7ySVtfeQ+SUcmCiDgxQmor+8nRjNkyoHEm8qoKuOf9p
Z0YE+Rey2rHNFPZ+CueHLYeYWYGRk+Zh9FZufSJ5PaRz1QCiGo9cy+ZTBFWjzFve
2o5jSXLYEP2+3ONQgwZM2pbTN90+9UEIC2M9RwjBC75MhyhEn3L9KqpEK82loxEe
AeD1yN+I7YwH+pnd3SpngHCB0x0TQN6hJeHzBX2XscTWFwEcV6lwTCIxRWqeTNQU
QYoi1qVJa0uKTYCAqx20j3FveMiiUs82fPMP930ZIjHsiPIWYf+ga0w5Vx2izlqe
3adLMVKAm8r6g0OSkQMq0XS3tgib+ojv4Q==
-----END CERTIFICATE-----
Certificate:
    Data:
        Version: 3 (0x2)
        Serial Number:
            9f:ab:17:25:a8:44:2d:cd
        Signature Algorithm: sha1WithRSAEncryption
        Issuer: OU=Root Certification Authority, CN=ca3.pem
        Validity
            Not Before: Dec  4 13:26:13 2013 GMT
            Not After : Jun  2 13:26:13 2033 GMT
        Subject: OU=Root Certification Authority, CN=ca3.pem
        Subject Public Key Info:
            Public Key Algorithm: rsaEncryption
                Public-Key: (2048 bit)
                Modulus:
                    00:bd:8b:3c:b6:0a:8e:17:f0:49:0e:36:c7:41:09:
                    9a:ab:b4:47:f5:66:38:ae:92:45:b9:2a:53:1e:a6:
                    ea:01:db:2b:be:fc:cf:1b:82:a6:a0:df:ef:96:4b:
                    f4:44:3a:97:37:fd:0f:93:22:ee:94:97:d1:17:50:
                    09:07:07:2a:6e:2d:ea:fb:21:cf:24:85:db:c1:93:
                    95:fc:95:3d:13:4e:42:6e:56:20:57:2c:a2:e6:b1:
                    e4:41:eb:0c:14:b1:39:d5:8a:69:a0:df:26:af:15:
                    cf:13:3d:81:18:38:32:9a:40:ad:9d:82:6f:43:38:
                    35:5b:44:55:fc:20:bd:30:3b:65:bb:eb:1c:52:6f:
                    1b:a9:04:19:15:47:f3:03:9d:b6:f6:a6:f9:da:0c:
                    5f:41:36:e6:47:f7:d2:15:25:3c:07:fc:7e:88:08:
                    f3:b8:17:e8:f2:7b:8e:e5:ba:27:d0:43:9a:a5:01:
                    13:3b:bf:37:44:d6:65:ce:81:fb:a6:35:b4:d7:4d:
                    6d:31:11:de:20:0b:2d:49:fc:60:9b:37:bf:03:5b:
                    c2:46:00:63:5d:64:80:48:b4:f5:49:dc:97:a9:7e:
                    6e:c7:33:74:71:1e:8a:7d:d4:d5:e0:d2:a5:9c:f0:
                    30:0a:1a:63:59:d3:f5:ce:93:e2:60:86:38:94:13:
                    35:05
                Exponent: 65537 (0x10001)
        X509v3 extensions:
            X509v3 Subject Key Identifier: 
                E5:0F:44:4E:46:BE:03:BE:BF:7E:3F:83:26:17:94:39:9A:38:34:55
            X509v3 Authority Key Identifier: 
                keyid:E5:0F:44:4E:46:BE:03:BE:BF:7E:3F:83:26:17:94:39:9A:38:34:55

            X509v3 Basic Constraints: 
                CA:TRUE
    Signature Algorithm: sha1WithRSAEncryption
        82:3a:9b:f8:01:23:35:18:9e:ee:f0:0e:45:f9:45:de:cc:42:
        69:f6:9d:9f:c6:6f:e3:78:21:94:1c:aa:23:9d:3c:11:fd:83:
        92:2b:4d:c6:0b:3f:e5:f1:da:2e:ab:a4:30:56:ae:5d:90:62:
        ee:5e:ee:c3:27:2b:3e:9e:4f:57:69:65:50:52:60:41:07:8f:
        b2:15:ec:27:14:58:c6:9f:4f:f1:b2:86:09:15:f3:b6:53:36:
        34:4c:c2:c5:50:b3:57:25:d0:44:0d:d6:2f:42:cc:54:b6:c8:
        e7:53:24:b7:b9:d4:63:ba:0a:a3:db:1e:16:40:4c:bb:1d:c4:
        06:01:8d:b1:9a:7b:21:df:6d:c4:f3:e3:12:30:56:d9:43:3b:
        43:1a:da:8e:8c:56:38:92:e9:d5:9d:3c:51:58:ed:e0:2b:f2:
        29:7f:1c:0c:f0:df:a5:da:14:70:3b:85:a5:39:14:bf:a2:13:
        05:25:95:0d:8d:3b:28:e9:5c:26:5c:14:e8:56:da:c4:a7:f9:
        93:3a:c1:60:41:2b:bf:81:2a:fe:e2:75:ec:cf:8d:77:1b:6e:
        b8:b2:50:84:d1:ce:67:86:7f:06:6e:5d:7e:29:92:a0:d8:c4:
        6c:bb:79:3d:8f:59:dd:d4:02:05:8a:93:ef:5c:7b:8f:38:7b:
        0e:b9:3a:f3
-----BEGIN CERTIFICATE-----
MIIDRTCCAi2gAwIBAgIJAJ+rFyWoRC3NMA0GCSqGSIb3DQEBBQUAMDkxJTAjBgNV
BAsMHFJvb3QgQ2VydGlmaWNhdGlvbiBBdXRob3JpdHkxEDAOBgNVBAMMB2NhMy5w
ZW0wHhcNMTMxMjA0MTMyNjEzWhcNMzMwNjAyMTMyNjEzWjA5MSUwIwYDVQQLDBxS
b290IENlcnRpZmljYXRpb24gQXV0aG9yaXR5MRAwDgYDVQQDDAdjYTMucGVtMIIB
IjANBgkqhkiG9w0BAQEFAAOCAQ8AMIIBCgKCAQEAvYs8tgqOF/BJDjbHQQmaq7RH
9WY4rpJFuSpTHqbqAdsrvvzPG4KmoN/vlkv0RDqXN/0PkyLulJfRF1AJBwcqbi3q
+yHPJIXbwZOV/JU9E05CblYgVyyi5rHkQesMFLE51YppoN8mrxXPEz2BGDgymkCt
nYJvQzg1W0RV/CC9MDtlu+scUm8bqQQZFUfzA5229qb52gxfQTbmR/fSFSU8B/x+
iAjzuBfo8nuO5bon0EOapQETO783RNZlzoH7pjW0101tMRHeIAstSfxgmze/A1vC
RgBjXWSASLT1SdyXqX5uxzN0cR6KfdTV4NKlnPAwChpjWdP1zpPiYIY4lBM1BQID
AQABo1AwTjAdBgNVHQ4EFgQU5Q9ETka+A76/fj+DJheUOZo4NFUwHwYDVR0jBBgw
FoAU5Q9ETka+A76/fj+DJheUOZo4NFUwDAYDVR0TBAUwAwEB/zANBgkqhkiG9w0B
AQUFAAOCAQEAgjqb+AEjNRie7vAORflF3sxCafadn8Zv43ghlByqI508Ef2DkitN
xgs/5fHaLqukMFauXZBi7l7uwycrPp5PV2llUFJgQQePshXsJxRYxp9P8bKGCRXz
tlM2NEzCxVCzVyXQRA3WL0LMVLbI51Mkt7nUY7oKo9seFkBMux3EBgGNsZp7Id9t
xPPjEjBW2UM7QxrajoxWOJLp1Z08UVjt4CvyKX8cDPDfpdoUcDuFpTkUv6ITBSWV
DY07KOlcJlwU6FbaxKf5kzrBYEErv4Eq/uJ17M+NdxtuuLJQhNHOZ4Z/Bm5dfimS
oNjEbLt5PY9Z3dQCBYqT71x7jzh7Drk68w==
-----END CERTIFICATE-----
