
Certificate:
    Data:
        Version: 3 (0x2)
        Serial Number: 985026699 (0x3ab6508b)
        Signature Algorithm: sha1WithRSAEncryption
        Issuer: C=BM, O=QuoVadis Limited, OU=Root Certification Authority, CN=QuoVadis Root Certification Authority
        Validity
            Not Before: Mar 19 18:33:33 2001 GMT
            Not After : Mar 17 18:33:33 2021 GMT
        Subject: C=BM, O=QuoVadis Limited, OU=Root Certification Authority, CN=QuoVadis Root Certification Authority
        Subject Public Key Info:
            Public Key Algorithm: rsaEncryption
            RSA Public Key: (2048 bit)
                Modulus (2048 bit):
                    00:bf:61:b5:95:53:ba:57:fc:fa:f2:67:0b:3a:1a:
                    df:11:80:64:95:b4:d1:bc:cd:7a:cf:f6:29:96:2e:
                    24:54:40:24:38:f7:1a:85:dc:58:4c:cb:a4:27:42:
                    97:d0:9f:83:8a:c3:e4:06:03:5b:00:a5:51:1e:70:
                    04:74:e2:c1:d4:3a:ab:d7:ad:3b:07:18:05:8e:fd:
                    83:ac:ea:66:d9:18:1b:68:8a:f5:57:1a:98:ba:f5:
                    ed:76:3d:7c:d9:de:94:6a:3b:4b:17:c1:d5:8f:bd:
                    65:38:3a:95:d0:3d:55:36:4e:df:79:57:31:2a:1e:
                    d8:59:65:49:58:20:98:7e:ab:5f:7e:9f:e9:d6:4d:
                    ec:83:74:a9:c7:6c:d8:ee:29:4a:85:2a:06:14:f9:
                    54:e6:d3:da:65:07:8b:63:37:12:d7:d0:ec:c3:7b:
                    20:41:44:a3:ed:cb:a0:17:e1:71:65:ce:1d:66:31:
                    f7:76:01:19:c8:7d:03:58:b6:95:49:1d:a6:12:26:
                    e8:c6:0c:76:e0:e3:66:cb:ea:5d:a6:26:ee:e5:cc:
                    5f:bd:67:a7:01:27:0e:a2:ca:54:c5:b1:7a:95:1d:
                    71:1e:4a:29:8a:03:dc:6a:45:c1:a4:19:5e:6f:36:
                    cd:c3:a2:b0:b7:fe:5c:38:e2:52:bc:f8:44:43:e6:
                    90:bb
                Exponent: 65537 (0x10001)
        X509v3 extensions:
            Authority Information Access:
                OCSP - URI:https://ocsp.quovadisoffshore.com

            X509v3 Basic Constraints: critical
                CA:TRUE
            X509v3 Certificate Policies:
                Policy: 1.3.6.1.4.1.8024.0.1
                  User Notice:
                    Explicit Text: Reliance on the QuoVadis Root Certificate by any party assumes acceptance of the then applicable standard terms and conditions of use, certification practices, and the QuoVadis Certificate Policy.
                  CPS: http://www.quovadis.bm

            X509v3 Subject Key Identifier:
                8B:4B:6D:ED:D3:29:B9:06:19:EC:39:39:A9:F0:97:84:6A:CB:EF:DF
            X509v3 Authority Key Identifier:
                keyid:8B:4B:6D:ED:D3:29:B9:06:19:EC:39:39:A9:F0:97:84:6A:CB:EF:DF
                DirName:/C=BM/O=QuoVadis Limited/OU=Root Certification Authority/CN=QuoVadis Root Certification Authority
                serial:3A:B6:50:8B

            X509v3 Key Usage: critical
                Certificate Sign, CRL Sign
    Signature Algorithm: sha1WithRSAEncryption
        8a:d4:14:b5:fe:f4:9a:92:a7:19:d4:a4:7e:72:18:8f:d9:68:
        7c:52:24:dd:67:6f:39:7a:c4:aa:5e:3d:e2:58:b0:4d:70:98:
        84:61:e8:1b:e3:69:18:0e:ce:fb:47:50:a0:4e:ff:f0:24:1f:
        bd:b2:ce:f5:27:fc:ec:2f:53:aa:73:7b:03:3d:74:6e:e6:16:
        9e:eb:a5:2e:c4:bf:56:27:50:2b:62:ba:be:4b:1c:3c:55:5c:
        41:1d:24:be:82:20:47:5d:d5:44:7e:7a:16:68:df:7d:4d:51:
        70:78:57:1d:33:1e:fd:02:99:9c:0c:cd:0a:05:4f:c7:bb:8e:
        a4:75:fa:4a:6d:b1:80:8e:09:56:b9:9c:1a:60:fe:5d:c1:d7:
        7a:dc:11:78:d0:d6:5d:c1:b7:d5:ad:32:99:03:3a:8a:cc:54:
        25:39:31:81:7b:13:22:51:ba:46:6c:a1:bb:9e:fa:04:6c:49:
        26:74:8f:d2:73:eb:cc:30:a2:e6:ea:59:22:87:f8:97:f5:0e:
        fd:ea:cc:92:a4:16:c4:52:18:ea:21:ce:b1:f1:e6:84:81:e5:
        ba:a9:86:28:f2:43:5a:5d:12:9d:ac:1e:d9:a8:e5:0a:6a:a7:
        7f:a0:87:29:cf:f2:89:4d:d4:ec:c5:e2:e6:7a:d0:36:23:8a:
        4a:74:36:f9
SHA1 Fingerprint=DE:3F:40:BD:50:93:D3:9B:6C:60:F6:DA:BC:07:62:01:00:89:76:C9
-----BEGIN CERTIFICATE-----
MIIF0DCCBLigAwIBAgIEOrZQizANBgkqhkiG9w0BAQUFADB/MQswCQYDVQQGEwJC
TTEZMBcGA1UEChMQUXVvVmFkaXMgTGltaXRlZDElMCMGA1UECxMcUm9vdCBDZXJ0
aWZpY2F0aW9uIEF1dGhvcml0eTEuMCwGA1UEAxMlUXVvVmFkaXMgUm9vdCBDZXJ0
aWZpY2F0aW9uIEF1dGhvcml0eTAeFw0wMTAzMTkxODMzMzNaFw0yMTAzMTcxODMz
MzNaMH8xCzAJBgNVBAYTAkJNMRkwFwYDVQQKExBRdW9WYWRpcyBMaW1pdGVkMSUw
IwYDVQQLExxSb290IENlcnRpZmljYXRpb24gQXV0aG9yaXR5MS4wLAYDVQQDEyVR
dW9WYWRpcyBSb290IENlcnRpZmljYXRpb24gQXV0aG9yaXR5MIIBIjANBgkqhkiG
9w0BAQEFAAOCAQ8AMIIBCgKCAQEAv2G1lVO6V/z68mcLOhrfEYBklbTRvM16z/Yp
li4kVEAkOPcahdxYTMukJ0KX0J+DisPkBgNbAKVRHnAEdOLB1Dqr1607BxgFjv2D
rOpm2RgbaIr1VxqYuvXtdj182d6UajtLF8HVj71lODqV0D1VNk7feVcxKh7YWWVJ
WCCYfqtffp/p1k3sg3Spx2zY7ilKhSoGFPlU5tPaZQeLYzcS19Dsw3sgQUSj7cug
F+FxZc4dZjH3dgEZyH0DWLaVSR2mEiboxgx24ONmy+pdpibu5cxfvWenAScOospU
xbF6lR1xHkopigPcakXBpBlebzbNw6Kwt/5cOOJSvPhEQ+aQuwIDAQABo4ICUjCC
Ak4wPQYIKwYBBQUHAQEEMTAvMC0GCCsGAQUFBzABhiFodHRwczovL29jc3AucXVv
dmFkaXNvZmZzaG9yZS5jb20wDwYDVR0TAQH/BAUwAwEB/zCCARoGA1UdIASCAREw
ggENMIIBCQYJKwYBBAG+WAABMIH7MIHUBggrBgEFBQcCAjCBxxqBxFJlbGlhbmNl
IG9uIHRoZSBRdW9WYWRpcyBSb290IENlcnRpZmljYXRlIGJ5IGFueSBwYXJ0eSBh
c3N1bWVzIGFjY2VwdGFuY2Ugb2YgdGhlIHRoZW4gYXBwbGljYWJsZSBzdGFuZGFy
ZCB0ZXJtcyBhbmQgY29uZGl0aW9ucyBvZiB1c2UsIGNlcnRpZmljYXRpb24gcHJh
Y3RpY2VzLCBhbmQgdGhlIFF1b1ZhZGlzIENlcnRpZmljYXRlIFBvbGljeS4wIgYI
KwYBBQUHAgEWFmh0dHA6Ly93d3cucXVvdmFkaXMuYm0wHQYDVR0OBBYEFItLbe3T
KbkGGew5Oanwl4Rqy+/fMIGuBgNVHSMEgaYwgaOAFItLbe3TKbkGGew5Oanwl4Rq
y+/foYGEpIGBMH8xCzAJBgNVBAYTAkJNMRkwFwYDVQQKExBRdW9WYWRpcyBMaW1p
dGVkMSUwIwYDVQQLExxSb290IENlcnRpZmljYXRpb24gQXV0aG9yaXR5MS4wLAYD
VQQDEyVRdW9WYWRpcyBSb290IENlcnRpZmljYXRpb24gQXV0aG9yaXR5ggQ6tlCL
MA4GA1UdDwEB/wQEAwIBBjANBgkqhkiG9w0BAQUFAAOCAQEAitQUtf70mpKnGdSk
fnIYj9lofFIk3WdvOXrEql494liwTXCYhGHoG+NpGA7O+0dQoE7/8CQfvbLO9Sf8
7C9TqnN7Az10buYWnuulLsS/VidQK2K6vkscPFVcQR0kvoIgR13VRH56FmjffU1R
cHhXHTMe/QKZnAzNCgVPx7uOpHX6Sm2xgI4JVrmcGmD+XcHXetwReNDWXcG31a0y
mQM6isxUJTkxgXsTIlG6Rmyhu576BGxJJnSP0nPrzDCi5upZIof4l/UO/erMkqQW
xFIY6iHOsfHmhIHluqmGKPJDWl0Snawe2ajlCmqnf6CHKc/yiU3U7MXi5nrQNiOK
SnQ2+Q==
-----END CERTIFICATE-----


Certificate:
    Data:
        Version: 3 (0x2)
        Serial Number: 1289 (0x509)
        Signature Algorithm: sha1WithRSAEncryption
        Issuer: C=BM, O=QuoVadis Limited, CN=QuoVadis Root CA 2
        Validity
            Not Before: Nov 24 18:27:00 2006 GMT
            Not After : Nov 24 18:23:33 2031 GMT
        Subject: C=BM, O=QuoVadis Limited, CN=QuoVadis Root CA 2
        Subject Public Key Info:
            Public Key Algorithm: rsaEncryption
            RSA Public Key: (4096 bit)
                Modulus (4096 bit):
                    00:9a:18:ca:4b:94:0d:00:2d:af:03:29:8a:f0:0f:
                    81:c8:ae:4c:19:85:1d:08:9f:ab:29:44:85:f3:2f:
                    81:ad:32:1e:90:46:bf:a3:86:26:1a:1e:fe:7e:1c:
                    18:3a:5c:9c:60:17:2a:3a:74:83:33:30:7d:61:54:
                    11:cb:ed:ab:e0:e6:d2:a2:7e:f5:6b:6f:18:b7:0a:
                    0b:2d:fd:e9:3e:ef:0a:c6:b3:10:e9:dc:c2:46:17:
                    f8:5d:fd:a4:da:ff:9e:49:5a:9c:e6:33:e6:24:96:
                    f7:3f:ba:5b:2b:1c:7a:35:c2:d6:67:fe:ab:66:50:
                    8b:6d:28:60:2b:ef:d7:60:c3:c7:93:bc:8d:36:91:
                    f3:7f:f8:db:11:13:c4:9c:77:76:c1:ae:b7:02:6a:
                    81:7a:a9:45:83:e2:05:e6:b9:56:c1:94:37:8f:48:
                    71:63:22:ec:17:65:07:95:8a:4b:df:8f:c6:5a:0a:
                    e5:b0:e3:5f:5e:6b:11:ab:0c:f9:85:eb:44:e9:f8:
                    04:73:f2:e9:fe:5c:98:8c:f5:73:af:6b:b4:7e:cd:
                    d4:5c:02:2b:4c:39:e1:b2:95:95:2d:42:87:d7:d5:
                    b3:90:43:b7:6c:13:f1:de:dd:f6:c4:f8:89:3f:d1:
                    75:f5:92:c3:91:d5:8a:88:d0:90:ec:dc:6d:de:89:
                    c2:65:71:96:8b:0d:03:fd:9c:bf:5b:16:ac:92:db:
                    ea:fe:79:7c:ad:eb:af:f7:16:cb:db:cd:25:2b:e5:
                    1f:fb:9a:9f:e2:51:cc:3a:53:0c:48:e6:0e:bd:c9:
                    b4:76:06:52:e6:11:13:85:72:63:03:04:e0:04:36:
                    2b:20:19:02:e8:74:a7:1f:b6:c9:56:66:f0:75:25:
                    dc:67:c1:0e:61:60:88:b3:3e:d1:a8:fc:a3:da:1d:
                    b0:d1:b1:23:54:df:44:76:6d:ed:41:d8:c1:b2:22:
                    b6:53:1c:df:35:1d:dc:a1:77:2a:31:e4:2d:f5:e5:
                    e5:db:c8:e0:ff:e5:80:d7:0b:63:a0:ff:33:a1:0f:
                    ba:2c:15:15:ea:97:b3:d2:a2:b5:be:f2:8c:96:1e:
                    1a:8f:1d:6c:a4:61:37:b9:86:73:33:d7:97:96:9e:
                    23:7d:82:a4:4c:81:e2:a1:d1:ba:67:5f:95:07:a3:
                    27:11:ee:16:10:7b:bc:45:4a:4c:b2:04:d2:ab:ef:
                    d5:fd:0c:51:ce:50:6a:08:31:f9:91:da:0c:8f:64:
                    5c:03:c3:3a:8b:20:3f:6e:8d:67:3d:3a:d6:fe:7d:
                    5b:88:c9:5e:fb:cc:61:dc:8b:33:77:d3:44:32:35:
                    09:62:04:92:16:10:d8:9e:27:47:fb:3b:21:e3:f8:
                    eb:1d:5b
                Exponent: 65537 (0x10001)
        X509v3 extensions:
            X509v3 Basic Constraints: critical
                CA:TRUE
            X509v3 Key Usage:
                Certificate Sign, CRL Sign
            X509v3 Subject Key Identifier:
                1A:84:62:BC:48:4C:33:25:04:D4:EE:D0:F6:03:C4:19:46:D1:94:6B
            X509v3 Authority Key Identifier:
                keyid:1A:84:62:BC:48:4C:33:25:04:D4:EE:D0:F6:03:C4:19:46:D1:94:6B
                DirName:/C=BM/O=QuoVadis Limited/CN=QuoVadis Root CA 2
                serial:05:09

    Signature Algorithm: sha1WithRSAEncryption
        3e:0a:16:4d:9f:06:5b:a8:ae:71:5d:2f:05:2f:67:e6:13:45:
        83:c4:36:f6:f3:c0:26:0c:0d:b5:47:64:5d:f8:b4:72:c9:46:
        a5:03:18:27:55:89:78:7d:76:ea:96:34:80:17:20:dc:e7:83:
        f8:8d:fc:07:b8:da:5f:4d:2e:67:b2:84:fd:d9:44:fc:77:50:
        81:e6:7c:b4:c9:0d:0b:72:53:f8:76:07:07:41:47:96:0c:fb:
        e0:82:26:93:55:8c:fe:22:1f:60:65:7c:5f:e7:26:b3:f7:32:
        90:98:50:d4:37:71:55:f6:92:21:78:f7:95:79:fa:f8:2d:26:
        87:66:56:30:77:a6:37:78:33:52:10:58:ae:3f:61:8e:f2:6a:
        b1:ef:18:7e:4a:59:63:ca:8d:a2:56:d5:a7:2f:bc:56:1f:cf:
        39:c1:e2:fb:0a:a8:15:2c:7d:4d:7a:63:c6:6c:97:44:3c:d2:
        6f:c3:4a:17:0a:f8:90:d2:57:a2:19:51:a5:2d:97:41:da:07:
        4f:a9:50:da:90:8d:94:46:e1:3e:f0:94:fd:10:00:38:f5:3b:
        e8:40:e1:b4:6e:56:1a:20:cc:6f:58:8d:ed:2e:45:8f:d6:e9:
        93:3f:e7:b1:2c:df:3a:d6:22:8c:dc:84:bb:22:6f:d0:f8:e4:
        c6:39:e9:04:88:3c:c3:ba:eb:55:7a:6d:80:99:24:f5:6c:01:
        fb:f8:97:b0:94:5b:eb:fd:d2:6f:f1:77:68:0d:35:64:23:ac:
        b8:55:a1:03:d1:4d:42:19:dc:f8:75:59:56:a3:f9:a8:49:79:
        f8:af:0e:b9:11:a0:7c:b7:6a:ed:34:d0:b6:26:62:38:1a:87:
        0c:f8:e8:fd:2e:d3:90:7f:07:91:2a:1d:d6:7e:5c:85:83:99:
        b0:38:08:3f:e9:5e:f9:35:07:e4:c9:62:6e:57:7f:a7:50:95:
        f7:ba:c8:9b:e6:8e:a2:01:c5:d6:66:bf:79:61:f3:3c:1c:e1:
        b9:82:5c:5d:a0:c3:e9:d8:48:bd:19:a2:11:14:19:6e:b2:86:
        1b:68:3e:48:37:1a:88:b7:5d:96:5e:9c:c7:ef:27:62:08:e2:
        91:19:5c:d2:f1:21:dd:ba:17:42:82:97:71:81:53:31:a9:9f:
        f6:7d:62:bf:72:e1:a3:93:1d:cc:8a:26:5a:09:38:d0:ce:d7:
        0d:80:16:b4:78:a5:3a:87:4c:8d:8a:a5:d5:46:97:f2:2c:10:
        b9:bc:54:22:c0:01:50:69:43:9e:f4:b2:ef:6d:f8:ec:da:f1:
        e3:b1:ef:df:91:8f:54:2a:0b:25:c1:26:19:c4:52:10:05:65:
        d5:82:10:ea:c2:31:cd:2e
SHA1 Fingerprint=CA:3A:FB:CF:12:40:36:4B:44:B2:16:20:88:80:48:39:19:93:7C:F7
-----BEGIN CERTIFICATE-----
MIIFtzCCA5+gAwIBAgICBQkwDQYJKoZIhvcNAQEFBQAwRTELMAkGA1UEBhMCQk0x
GTAXBgNVBAoTEFF1b1ZhZGlzIExpbWl0ZWQxGzAZBgNVBAMTElF1b1ZhZGlzIFJv
b3QgQ0EgMjAeFw0wNjExMjQxODI3MDBaFw0zMTExMjQxODIzMzNaMEUxCzAJBgNV
BAYTAkJNMRkwFwYDVQQKExBRdW9WYWRpcyBMaW1pdGVkMRswGQYDVQQDExJRdW9W
YWRpcyBSb290IENBIDIwggIiMA0GCSqGSIb3DQEBAQUAA4ICDwAwggIKAoICAQCa
GMpLlA0ALa8DKYrwD4HIrkwZhR0In6spRIXzL4GtMh6QRr+jhiYaHv5+HBg6XJxg
Fyo6dIMzMH1hVBHL7avg5tKifvVrbxi3Cgst/ek+7wrGsxDp3MJGF/hd/aTa/55J
WpzmM+Yklvc/ulsrHHo1wtZn/qtmUIttKGAr79dgw8eTvI02kfN/+NsRE8Scd3bB
rrcCaoF6qUWD4gXmuVbBlDePSHFjIuwXZQeVikvfj8ZaCuWw419eaxGrDPmF60Tp
+ARz8un+XJiM9XOva7R+zdRcAitMOeGylZUtQofX1bOQQ7dsE/He3fbE+Ik/0XX1
ksOR1YqI0JDs3G3eicJlcZaLDQP9nL9bFqyS2+r+eXyt66/3FsvbzSUr5R/7mp/i
Ucw6UwxI5g69ybR2BlLmEROFcmMDBOAENisgGQLodKcftslWZvB1JdxnwQ5hYIiz
PtGo/KPaHbDRsSNU30R2be1B2MGyIrZTHN81Hdyhdyox5C315eXbyOD/5YDXC2Og
/zOhD7osFRXql7PSorW+8oyWHhqPHWykYTe5hnMz15eWniN9gqRMgeKh0bpnX5UH
oycR7hYQe7xFSkyyBNKr79X9DFHOUGoIMfmR2gyPZFwDwzqLID9ujWc9Otb+fVuI
yV77zGHcizN300QyNQliBJIWENieJ0f7OyHj+OsdWwIDAQABo4GwMIGtMA8GA1Ud
EwEB/wQFMAMBAf8wCwYDVR0PBAQDAgEGMB0GA1UdDgQWBBQahGK8SEwzJQTU7tD2
A8QZRtGUazBuBgNVHSMEZzBlgBQahGK8SEwzJQTU7tD2A8QZRtGUa6FJpEcwRTEL
MAkGA1UEBhMCQk0xGTAXBgNVBAoTEFF1b1ZhZGlzIExpbWl0ZWQxGzAZBgNVBAMT
ElF1b1ZhZGlzIFJvb3QgQ0EgMoICBQkwDQYJKoZIhvcNAQEFBQADggIBAD4KFk2f
BluornFdLwUvZ+YTRYPENvbzwCYMDbVHZF34tHLJRqUDGCdViXh9duqWNIAXINzn
g/iN/Ae42l9NLmeyhP3ZRPx3UIHmfLTJDQtyU/h2BwdBR5YM++CCJpNVjP4iH2Bl
fF/nJrP3MpCYUNQ3cVX2kiF495V5+vgtJodmVjB3pjd4M1IQWK4/YY7yarHvGH5K
WWPKjaJW1acvvFYfzznB4vsKqBUsfU16Y8Zsl0Q80m/DShcK+JDSV6IZUaUtl0Ha
B0+pUNqQjZRG4T7wlP0QADj1O+hA4bRuVhogzG9Yje0uRY/W6ZM/57Es3zrWIozc
hLsib9D45MY56QSIPMO661V6bYCZJPVsAfv4l7CUW+v90m/xd2gNNWQjrLhVoQPR
TUIZ3Ph1WVaj+ahJefivDrkRoHy3au000LYmYjgahwz46P0u05B/B5EqHdZ+XIWD
mbA4CD/pXvk1B+TJYm5Xf6dQlfe6yJvmjqIBxdZmv3lh8zwc4bmCXF2gw+nYSL0Z
ohEUGW6yhhtoPkg3Goi3XZZenMfvJ2II4pEZXNLxId26F0KCl3GBUzGpn/Z9Yr9y
4aOTHcyKJloJONDO1w2AFrR4pTqHTI2KpdVGl/IsELm8VCLAAVBpQ570su9t+Oza
8eOx79+Rj1QqCyXBJhnEUhAFZdWCEOrCMc0u
-----END CERTIFICATE-----


Certificate:
    Data:
        Version: 3 (0x2)
        Serial Number: 1478 (0x5c6)
        Signature Algorithm: sha1WithRSAEncryption
        Issuer: C=BM, O=QuoVadis Limited, CN=QuoVadis Root CA 3
        Validity
            Not Before: Nov 24 19:11:23 2006 GMT
            Not After : Nov 24 19:06:44 2031 GMT
        Subject: C=BM, O=QuoVadis Limited, CN=QuoVadis Root CA 3
        Subject Public Key Info:
            Public Key Algorithm: rsaEncryption
            RSA Public Key: (4096 bit)
                Modulus (4096 bit):
                    00:cc:57:42:16:54:9c:e6:98:d3:d3:4d:ee:fe:ed:
                    c7:9f:43:39:4a:65:b3:e8:16:88:34:db:0d:59:91:
                    74:cf:92:b8:04:40:ad:02:4b:31:ab:bc:8d:91:68:
                    d8:20:0e:1a:01:e2:1a:7b:4e:17:5d:e2:8a:b7:3f:
                    99:1a:cd:eb:61:ab:c2:65:a6:1f:b7:b7:bd:b7:8f:
                    fc:fd:70:8f:0b:a0:67:be:01:a2:59:cf:71:e6:0f:
                    29:76:ff:b1:56:79:45:2b:1f:9e:7a:54:e8:a3:29:
                    35:68:a4:01:4f:0f:a4:2e:37:ef:1b:bf:e3:8f:10:
                    a8:72:ab:58:57:e7:54:86:c8:c9:f3:5b:da:2c:da:
                    5d:8e:6e:3c:a3:3e:da:fb:82:e5:dd:f2:5c:b2:05:
                    33:6f:8a:36:ce:d0:13:4e:ff:bf:4a:0c:34:4c:a6:
                    c3:21:bd:50:04:55:eb:b1:bb:9d:fb:45:1e:64:15:
                    de:55:01:8c:02:76:b5:cb:a1:3f:42:69:bc:2f:bd:
                    68:43:16:56:89:2a:37:61:91:fd:a6:ae:4e:c0:cb:
                    14:65:94:37:4b:92:06:ef:04:d0:c8:9c:88:db:0b:
                    7b:81:af:b1:3d:2a:c4:65:3a:78:b6:ee:dc:80:b1:
                    d2:d3:99:9c:3a:ee:6b:5a:6b:b3:8d:b7:d5:ce:9c:
                    c2:be:a5:4b:2f:16:b1:9e:68:3b:06:6f:ae:7d:9f:
                    f8:de:ec:cc:29:a7:98:a3:25:43:2f:ef:f1:5f:26:
                    e1:88:4d:f8:5e:6e:d7:d9:14:6e:19:33:69:a7:3b:
                    84:89:93:c4:53:55:13:a1:51:78:40:f8:b8:c9:a2:
                    ee:7b:ba:52:42:83:9e:14:ed:05:52:5a:59:56:a7:
                    97:fc:9d:3f:0a:29:d8:dc:4f:91:0e:13:bc:de:95:
                    a4:df:8b:99:be:ac:9b:33:88:ef:b5:81:af:1b:c6:
                    22:53:c8:f6:c7:ee:97:14:b0:c5:7c:78:52:c8:f0:
                    ce:6e:77:60:84:a6:e9:2a:76:20:ed:58:01:17:30:
                    93:e9:1a:8b:e0:73:63:d9:6a:92:94:49:4e:b4:ad:
                    4a:85:c4:a3:22:30:fc:09:ed:68:22:73:a6:88:0c:
                    55:21:58:c5:e1:3a:9f:2a:dd:ca:e1:90:e0:d9:73:
                    ab:6c:80:b8:e8:0b:64:93:a0:9c:8c:19:ff:b3:d2:
                    0c:ec:91:26:87:8a:b3:a2:e1:70:8f:2c:0a:e5:cd:
                    6d:68:51:eb:da:3f:05:7f:8b:32:e6:13:5c:6b:fe:
                    5f:40:e2:22:c8:b4:b4:64:4f:d6:ba:7d:48:3e:a8:
                    69:0c:d7:bb:86:71:c9:73:b8:3f:3b:9d:25:4b:da:
                    ff:40:eb
                Exponent: 65537 (0x10001)
        X509v3 extensions:
            X509v3 Basic Constraints: critical
                CA:TRUE
            X509v3 Certificate Policies:
                Policy: 1.3.6.1.4.1.8024.0.3
                  User Notice:
                    Explicit Text: Any use of this Certificate constitutes acceptance of the QuoVadis Root CA 3 Certificate Policy / Certification Practice Statement.
                  CPS: http://www.quovadisglobal.com/cps

            X509v3 Key Usage:
                Certificate Sign, CRL Sign
            X509v3 Subject Key Identifier:
                F2:C0:13:E0:82:43:3E:FB:EE:2F:67:32:96:35:5C:DB:B8:CB:02:D0
            X509v3 Authority Key Identifier:
                keyid:F2:C0:13:E0:82:43:3E:FB:EE:2F:67:32:96:35:5C:DB:B8:CB:02:D0
                DirName:/C=BM/O=QuoVadis Limited/CN=QuoVadis Root CA 3
                serial:05:C6

    Signature Algorithm: sha1WithRSAEncryption
        4f:ad:a0:2c:4c:fa:c0:f2:6f:f7:66:55:ab:23:34:ee:e7:29:
        da:c3:5b:b6:b0:83:d9:d0:d0:e2:21:fb:f3:60:a7:3b:5d:60:
        53:27:a2:9b:f6:08:22:2a:e7:bf:a0:72:e5:9c:24:6a:31:b1:
        90:7a:27:db:84:11:89:27:a6:77:5a:38:d7:bf:ac:86:fc:ee:
        5d:83:bc:06:c6:d1:77:6b:0f:6d:24:2f:4b:7a:6c:a7:07:96:
        ca:e3:84:9f:ad:88:8b:1d:ab:16:8d:5b:66:17:d9:16:f4:8b:
        80:d2:dd:f8:b2:76:c3:fc:38:13:aa:0c:de:42:69:2b:6e:f3:
        3c:eb:80:27:db:f5:a6:44:0d:9f:5a:55:59:0b:d5:0d:52:48:
        c5:ae:9f:f2:2f:80:c5:ea:32:50:35:12:97:2e:c1:e1:ff:f1:
        23:88:51:38:9f:f2:66:56:76:e7:0f:51:97:a5:52:0c:4d:49:
        51:95:36:3d:bf:a2:4b:0c:10:1d:86:99:4c:aa:f3:72:11:93:
        e4:ea:f6:9b:da:a8:5d:a7:4d:b7:9e:02:ae:73:00:c8:da:23:
        03:e8:f9:ea:19:74:62:00:94:cb:22:20:be:94:a7:59:b5:82:
        6a:be:99:79:7a:a9:f2:4a:24:52:f7:74:fd:ba:4e:e6:a8:1d:
        02:6e:b1:0d:80:44:c1:ae:d3:23:37:5f:bb:85:7c:2b:92:2e:
        e8:7e:a5:8b:dd:99:e1:bf:27:6f:2d:5d:aa:7b:87:fe:0a:dd:
        4b:fc:8e:f5:26:e4:6e:70:42:6e:33:ec:31:9e:7b:93:c1:e4:
        c9:69:1a:3d:c0:6b:4e:22:6d:ee:ab:58:4d:c6:d0:41:c1:2b:
        ea:4f:12:87:5e:eb:45:d8:6c:f5:98:02:d3:a0:d8:55:8a:06:
        99:19:a2:a0:77:d1:30:9e:ac:cc:75:ee:83:f5:b0:62:39:cf:
        6c:57:e2:4c:d2:91:0b:0e:75:28:1b:9a:bf:fd:1a:43:f1:ca:
        77:fb:3b:8f:61:b8:69:28:16:42:04:5e:70:2a:1c:21:d8:8f:
        e1:bd:23:5b:2d:74:40:92:d9:63:19:0d:73:dd:69:bc:62:47:
        bc:e0:74:2b:b2:eb:7d:be:41:1b:b5:c0:46:c5:a1:22:cb:5f:
        4e:c1:28:92:de:18:ba:d5:2a:28:bb:11:8b:17:93:98:99:60:
        94:5c:23:cf:5a:27:97:5e:0b:05:06:93:37:1e:3b:69:36:eb:
        a9:9e:61:1d:8f:32:da:8e:0c:d6:74:3e:7b:09:24:da:01:77:
        47:c4:3b:cd:34:8c:99:f5:ca:e1:25:61:33:b2:59:1b:e2:6e:
        d7:37:57:b6:0d:a9:12:da
SHA1 Fingerprint=1F:49:14:F7:D8:74:95:1D:DD:AE:02:C0:BE:FD:3A:2D:82:75:51:85
-----BEGIN CERTIFICATE-----
MIIGnTCCBIWgAwIBAgICBcYwDQYJKoZIhvcNAQEFBQAwRTELMAkGA1UEBhMCQk0x
GTAXBgNVBAoTEFF1b1ZhZGlzIExpbWl0ZWQxGzAZBgNVBAMTElF1b1ZhZGlzIFJv
b3QgQ0EgMzAeFw0wNjExMjQxOTExMjNaFw0zMTExMjQxOTA2NDRaMEUxCzAJBgNV
BAYTAkJNMRkwFwYDVQQKExBRdW9WYWRpcyBMaW1pdGVkMRswGQYDVQQDExJRdW9W
YWRpcyBSb290IENBIDMwggIiMA0GCSqGSIb3DQEBAQUAA4ICDwAwggIKAoICAQDM
V0IWVJzmmNPTTe7+7cefQzlKZbPoFog02w1ZkXTPkrgEQK0CSzGrvI2RaNggDhoB
4hp7Thdd4oq3P5kazethq8Jlph+3t723j/z9cI8LoGe+AaJZz3HmDyl2/7FWeUUr
H556VOijKTVopAFPD6QuN+8bv+OPEKhyq1hX51SGyMnzW9os2l2ObjyjPtr7guXd
8lyyBTNvijbO0BNO/79KDDRMpsMhvVAEVeuxu537RR5kFd5VAYwCdrXLoT9Cabwv
vWhDFlaJKjdhkf2mrk7AyxRllDdLkgbvBNDInIjbC3uBr7E9KsRlOni27tyAsdLT
mZw67mtaa7ONt9XOnMK+pUsvFrGeaDsGb659n/je7Mwpp5ijJUMv7/FfJuGITfhe
btfZFG4ZM2mnO4SJk8RTVROhUXhA+LjJou57ulJCg54U7QVSWllWp5f8nT8KKdjc
T5EOE7zelaTfi5m+rJsziO+1ga8bxiJTyPbH7pcUsMV8eFLI8M5ud2CEpukqdiDt
WAEXMJPpGovgc2PZapKUSU60rUqFxKMiMPwJ7Wgic6aIDFUhWMXhOp8q3crhkODZ
c6tsgLjoC2SToJyMGf+z0gzskSaHirOi4XCPLArlzW1oUevaPwV/izLmE1xr/l9A
4iLItLRkT9a6fUg+qGkM17uGcclzuD87nSVL2v9A6wIDAQABo4IBlTCCAZEwDwYD
VR0TAQH/BAUwAwEB/zCB4QYDVR0gBIHZMIHWMIHTBgkrBgEEAb5YAAMwgcUwgZMG
CCsGAQUFBwICMIGGGoGDQW55IHVzZSBvZiB0aGlzIENlcnRpZmljYXRlIGNvbnN0
aXR1dGVzIGFjY2VwdGFuY2Ugb2YgdGhlIFF1b1ZhZGlzIFJvb3QgQ0EgMyBDZXJ0
aWZpY2F0ZSBQb2xpY3kgLyBDZXJ0aWZpY2F0aW9uIFByYWN0aWNlIFN0YXRlbWVu
dC4wLQYIKwYBBQUHAgEWIWh0dHA6Ly93d3cucXVvdmFkaXNnbG9iYWwuY29tL2Nw
czALBgNVHQ8EBAMCAQYwHQYDVR0OBBYEFPLAE+CCQz777i9nMpY1XNu4ywLQMG4G
A1UdIwRnMGWAFPLAE+CCQz777i9nMpY1XNu4ywLQoUmkRzBFMQswCQYDVQQGEwJC
TTEZMBcGA1UEChMQUXVvVmFkaXMgTGltaXRlZDEbMBkGA1UEAxMSUXVvVmFkaXMg
Um9vdCBDQSAzggIFxjANBgkqhkiG9w0BAQUFAAOCAgEAT62gLEz6wPJv92ZVqyM0
7ucp2sNbtrCD2dDQ4iH782CnO11gUyeim/YIIirnv6By5ZwkajGxkHon24QRiSem
d1o417+shvzuXYO8BsbRd2sPbSQvS3pspweWyuOEn62Iix2rFo1bZhfZFvSLgNLd
+LJ2w/w4E6oM3kJpK27zPOuAJ9v1pkQNn1pVWQvVDVJIxa6f8i+AxeoyUDUSly7B
4f/xI4hROJ/yZlZ25w9Rl6VSDE1JUZU2Pb+iSwwQHYaZTKrzchGT5Or2m9qoXadN
t54CrnMAyNojA+j56hl0YgCUyyIgvpSnWbWCar6ZeXqp8kokUvd0/bpO5qgdAm6x
DYBEwa7TIzdfu4V8K5Iu6H6li92Z4b8nby1dqnuH/grdS/yO9SbkbnBCbjPsMZ57
k8HkyWkaPcBrTiJt7qtYTcbQQcEr6k8Sh17rRdhs9ZgC06DYVYoGmRmioHfRMJ6s
zHXug/WwYjnPbFfiTNKRCw51KBuav/0aQ/HKd/s7j2G4aSgWQgRecCocIdiP4b0j
Wy10QJLZYxkNc91pvGJHvOB0K7Lrfb5BG7XARsWhIstfTsEokt4YutUqKLsRixeT
mJlglFwjz1onl14LBQaTNx47aTbrqZ5hHY8y2o4M1nQ+ewkk2gF3R8Q7zTSMmfXK
4SVhM7JZG+Ju1zdXtg2pEto=
-----END CERTIFICATE-----
