Certificate:
    Data:
        Version: 3 (0x2)
        Serial Number: 1 (0x1)
        Signature Algorithm: sha1WithRSAEncryption
        Issuer: OU=Cert, CN=cert0.pem
        Validity
            Not Before: Dec  4 13:26:13 2013 GMT
            Not After : Jun  2 13:26:13 2033 GMT
        Subject: OU=Cert, CN=cert1.pem
        Subject Public Key Info:
            Public Key Algorithm: rsaEncryption
                Public-Key: (4096 bit)
                Modulus:
                    00:b7:8a:db:2e:f3:c7:6c:2c:78:7e:29:af:66:50:
                    d4:ff:f9:c1:29:2b:96:ad:b9:5f:c0:7b:02:39:09:
                    cc:46:5e:24:9e:e4:57:8b:43:d6:28:ae:91:2b:38:
                    dd:c6:e1:08:cc:22:7e:dd:87:79:06:28:98:81:b0:
                    35:5e:75:ca:77:f6:15:34:9f:30:f9:cb:cc:fd:ae:
                    c6:91:1c:eb:45:fa:4b:92:fc:d6:27:ad:07:ac:20:
                    d2:6f:19:e4:c8:6b:3f:c0:17:20:c2:56:2a:6e:46:
                    0d:c1:a1:39:f2:9c:65:57:8d:4b:b8:a4:60:36:13:
                    cf:68:3a:4c:cd:35:b0:77:3a:ec:e7:18:2b:da:b2:
                    b5:95:97:ae:22:ae:23:44:99:62:10:4d:fa:1f:62:
                    93:93:35:7b:19:dc:51:3e:44:63:f8:95:c1:6a:62:
                    cf:d4:d3:67:9b:82:74:f9:d8:ac:06:0e:f6:5e:3a:
                    76:8f:92:12:fe:ff:9d:11:8b:21:47:d6:b1:e8:53:
                    c4:a5:12:7d:d7:21:06:96:93:34:f0:13:57:12:3b:
                    3c:4f:9b:7d:c0:a6:d0:cc:d2:c3:07:b9:e8:46:62:
                    d0:8e:49:14:1d:ae:69:34:a5:21:58:da:95:d6:af:
                    84:5e:de:5f:e3:c3:b6:5d:0c:fd:33:f5:fe:c1:df:
                    69:f7:11:0d:88:63:24:ff:1a:79:cd:76:81:2a:59:
                    f7:32:27:6f:b0:12:1b:0c:a8:ac:b8:c3:85:f6:63:
                    7e:bd:bd:97:86:09:b6:1b:51:54:2e:03:02:9e:ae:
                    44:07:2b:48:7e:34:76:fe:f8:6e:28:81:14:8b:ef:
                    24:d0:eb:c3:f2:1f:4c:93:24:51:cd:5f:06:af:26:
                    8e:08:da:aa:8b:8a:06:f5:ed:64:c2:4f:9b:f7:05:
                    ea:be:ab:24:1b:64:f0:01:99:40:8c:11:dd:9c:28:
                    5d:6e:ac:b4:c0:f2:06:e9:14:ca:e0:b4:47:af:2d:
                    51:4e:ee:a7:26:38:ba:97:91:8d:fe:00:19:0c:ca:
                    ac:2b:d1:57:ca:34:f4:1c:14:21:01:25:ed:9e:4c:
                    cd:47:f8:7f:9a:88:37:50:0f:28:71:2d:e5:23:5a:
                    7f:08:1c:9e:05:ab:50:f6:a0:c4:63:74:d1:88:27:
                    8c:c5:16:5a:f5:f0:79:77:c3:69:6d:88:17:8f:79:
                    24:49:d3:69:79:59:c0:63:dc:a9:db:53:ea:dd:78:
                    8c:7a:83:31:b4:1c:c2:8c:9e:14:85:95:9f:3c:21:
                    c2:f6:50:53:68:d9:c2:45:cf:94:91:87:94:62:3d:
                    b1:97:ac:96:2d:f0:c1:7c:15:62:00:91:26:58:b9:
                    61:4e:ff
                Exponent: 65537 (0x10001)
        X509v3 extensions:
            X509v3 Basic Constraints: 
                CA:TRUE
    Signature Algorithm: sha1WithRSAEncryption
        9f:4e:99:95:c8:87:7f:87:56:4c:88:6b:9f:9d:ca:f7:2f:07:
        88:5d:0e:14:a5:1a:6c:a0:4f:36:e1:76:a7:14:8c:44:51:1d:
        61:35:aa:75:16:4a:94:a8:b2:05:0e:df:21:ad:53:2e:85:ca:
        dc:6a:8e:cf:78:77:01:e1:d5:e6:96:e0:3d:da:29:1c:3e:82:
        f8:9d:c1:ad:1c:dc:88:dd:b5:cf:27:db:74:3b:7b:33:04:44:
        b8:ae:e8:42:ae:16:67:a3:73:13:07:85:f7:0f:cf:54:a2:91:
        8f:b6:51:3c:9a:42:c4:23:47:5f:de:69:93:4b:aa:80:b4:1c:
        38:67:98:ab:ae:06:16:cf:55:b3:a2:4c:29:36:60:85:05:a1:
        9f:e9:a5:85:6d:95:55:6b:ea:bb:bf:eb:a9:77:a6:50:5a:95:
        b2:7b:f1:3d:3e:a2:fe:c9:6d:f2:b7:a2:f2:cd:a2:20:92:cc:
        16:fc:2e:62:e2:a2:5d:be:59:d2:cc:13:36:ca:58:4a:5a:de:
        e6:89:de:e8:f9:5e:1a:ca:05:c1:dd:46:4a:e8:3d:89:a4:78:
        07:65:fc:ea:55:aa:b9:3b:c9:d7:a6:e0:2d:5d:0c:b1:9a:b4:
        6f:95:1b:40:ae:17:f6:c6:2c:19:51:19:a7:48:68:0d:6f:e5:
        5d:e9:33:24
-----BEGIN CERTIFICATE-----
MIID0TCCArmgAwIBAgIBATANBgkqhkiG9w0BAQUFADAjMQ0wCwYDVQQLDARDZXJ0
MRIwEAYDVQQDDAljZXJ0MC5wZW0wHhcNMTMxMjA0MTMyNjEzWhcNMzMwNjAyMTMy
NjEzWjAjMQ0wCwYDVQQLDARDZXJ0MRIwEAYDVQQDDAljZXJ0MS5wZW0wggIiMA0G
CSqGSIb3DQEBAQUAA4ICDwAwggIKAoICAQC3itsu88dsLHh+Ka9mUNT/+cEpK5at
uV/AewI5CcxGXiSe5FeLQ9YorpErON3G4QjMIn7dh3kGKJiBsDVedcp39hU0nzD5
y8z9rsaRHOtF+kuS/NYnrQesINJvGeTIaz/AFyDCVipuRg3BoTnynGVXjUu4pGA2
E89oOkzNNbB3OuznGCvasrWVl64iriNEmWIQTfofYpOTNXsZ3FE+RGP4lcFqYs/U
02ebgnT52KwGDvZeOnaPkhL+/50RiyFH1rHoU8SlEn3XIQaWkzTwE1cSOzxPm33A
ptDM0sMHuehGYtCOSRQdrmk0pSFY2pXWr4Re3l/jw7ZdDP0z9f7B32n3EQ2IYyT/
GnnNdoEqWfcyJ2+wEhsMqKy4w4X2Y369vZeGCbYbUVQuAwKerkQHK0h+NHb++G4o
gRSL7yTQ68PyH0yTJFHNXwavJo4I2qqLigb17WTCT5v3Beq+qyQbZPABmUCMEd2c
KF1urLTA8gbpFMrgtEevLVFO7qcmOLqXkY3+ABkMyqwr0VfKNPQcFCEBJe2eTM1H
+H+aiDdQDyhxLeUjWn8IHJ4Fq1D2oMRjdNGIJ4zFFlr18Hl3w2ltiBePeSRJ02l5
WcBj3KnbU+rdeIx6gzG0HMKMnhSFlZ88IcL2UFNo2cJFz5SRh5RiPbGXrJYt8MF8
FWIAkSZYuWFO/wIDAQABoxAwDjAMBgNVHRMEBTADAQH/MA0GCSqGSIb3DQEBBQUA
A4IBAQCfTpmVyId/h1ZMiGufncr3LweIXQ4UpRpsoE824XanFIxEUR1hNap1FkqU
qLIFDt8hrVMuhcrcao7PeHcB4dXmluA92ikcPoL4ncGtHNyI3bXPJ9t0O3szBES4
ruhCrhZno3MTB4X3D89UopGPtlE8mkLEI0df3mmTS6qAtBw4Z5irrgYWz1Wzokwp
NmCFBaGf6aWFbZVVa+q7v+upd6ZQWpWye/E9PqL+yW3yt6LyzaIgkswW/C5i4qJd
vlnSzBM2ylhKWt7mid7o+V4aygXB3UZK6D2JpHgHZfzqVaq5O8nXpuAtXQyxmrRv
lRtArhf2xiwZURmnSGgNb+Vd6TMk
-----END CERTIFICATE-----
