Certificate:
    Data:
        Version: 3 (0x2)
        Serial Number: 1 (0x1)
        Signature Algorithm: sha1WithRSAEncryption
        Issuer: OU=Cert, CN=cert2.pem
        Validity
            Not Before: Dec  4 13:26:13 2013 GMT
            Not After : Jun  2 13:26:13 2033 GMT
        Subject: OU=Cert, CN=cert3.pem
        Subject Public Key Info:
            Public Key Algorithm: rsaEncryption
                Public-Key: (2048 bit)
                Modulus:
                    00:b3:9c:7b:17:41:6c:2f:57:f1:b0:e8:a5:5f:0c:
                    c6:65:15:cc:b1:68:c4:39:bd:9d:b0:14:92:39:b7:
                    e4:5d:c7:4d:33:33:67:7f:11:fd:0c:d5:c2:bb:15:
                    10:bb:42:c6:c5:80:0d:0e:4e:a5:2e:c1:2b:9c:15:
                    2d:59:51:88:34:89:fb:4e:19:be:17:c9:66:04:7f:
                    11:72:5a:75:44:04:dd:82:51:0d:b8:01:df:09:a2:
                    fb:d9:64:9e:21:38:fd:a7:84:fd:62:62:a7:0f:c2:
                    94:16:c5:75:5e:d4:f8:31:e2:55:f5:3c:9a:af:b5:
                    73:21:d6:52:99:7f:da:f2:24:ed:ea:e9:79:59:83:
                    c4:32:3b:23:06:90:c2:b1:ba:b3:00:2e:47:2e:e3:
                    82:c0:59:fd:2d:72:e1:8a:ba:ed:a8:b5:f2:59:eb:
                    23:2d:e9:aa:42:ff:75:92:43:ac:e2:15:d6:69:13:
                    aa:eb:4c:9d:59:07:83:d9:dd:ac:57:f7:35:10:52:
                    a3:41:c9:03:07:d9:1f:32:18:f6:c1:2a:84:f0:5f:
                    11:15:77:7f:30:e0:fb:18:fe:d0:bb:00:bb:54:16:
                    a0:47:89:fa:67:07:4e:15:91:64:20:e1:05:89:66:
                    f6:3c:3b:e9:90:37:5b:e3:d5:3f:3e:a4:83:d4:bf:
                    e9:23
                Exponent: 65537 (0x10001)
        X509v3 extensions:
            X509v3 Basic Constraints: 
                CA:TRUE
    Signature Algorithm: sha1WithRSAEncryption
        05:8d:41:b5:b8:7f:d5:38:97:01:3f:f9:5d:83:9e:ca:54:9f:
        ff:91:04:83:6b:9f:5f:27:be:c2:b7:4b:b7:ec:f8:11:28:14:
        a6:b4:59:8d:7d:57:10:b4:08:04:56:ff:c9:63:32:db:6a:b2:
        28:db:28:27:84:c9:53:e0:de:4c:45:b4:01:37:2d:27:06:41:
        1f:85:d6:65:c6:a3:21:3c:a0:eb:e6:20:2b:c5:49:57:f2:e4:
        27:c9:20:c7:dd:8e:3b:53:f1:17:2b:52:f1:b2:70:e6:ed:c5:
        5a:4c:df:24:16:96:d6:20:41:51:1b:b1:af:c5:39:44:6c:dd:
        b7:3a:16:05:06:89:a5:c8:c8:18:03:98:5a:3e:1f:22:44:e5:
        68:fb:be:3e:37:43:52:03:f8:9e:21:cb:1e:29:4f:0a:ff:33:
        0f:86:3b:b5:a4:33:73:89:a9:07:91:3e:e5:41:97:d4:46:c0:
        98:43:9e:bc:d9:f2:4a:1f:b3:52:9b:48:7e:7c:31:39:d4:9c:
        77:bb:78:27:9b:32:56:9b:b2:b8:0d:e3:ea:c7:c1:03:d0:29:
        46:a9:b3:b8:62:d9:91:26:a6:af:b8:c2:3e:28:e7:a0:dd:f4:
        06:1c:75:0f:f5:9f:52:b0:51:fc:f9:41:ec:3e:2d:95:dc:ab:
        7c:bc:0a:d5
-----BEGIN CERTIFICATE-----
MIIC0TCCAbmgAwIBAgIBATANBgkqhkiG9w0BAQUFADAjMQ0wCwYDVQQLDARDZXJ0
MRIwEAYDVQQDDAljZXJ0Mi5wZW0wHhcNMTMxMjA0MTMyNjEzWhcNMzMwNjAyMTMy
NjEzWjAjMQ0wCwYDVQQLDARDZXJ0MRIwEAYDVQQDDAljZXJ0My5wZW0wggEiMA0G
CSqGSIb3DQEBAQUAA4IBDwAwggEKAoIBAQCznHsXQWwvV/Gw6KVfDMZlFcyxaMQ5
vZ2wFJI5t+Rdx00zM2d/Ef0M1cK7FRC7QsbFgA0OTqUuwSucFS1ZUYg0iftOGb4X
yWYEfxFyWnVEBN2CUQ24Ad8JovvZZJ4hOP2nhP1iYqcPwpQWxXVe1Pgx4lX1PJqv
tXMh1lKZf9ryJO3q6XlZg8QyOyMGkMKxurMALkcu44LAWf0tcuGKuu2otfJZ6yMt
6apC/3WSQ6ziFdZpE6rrTJ1ZB4PZ3axX9zUQUqNByQMH2R8yGPbBKoTwXxEVd38w
4PsY/tC7ALtUFqBHifpnB04VkWQg4QWJZvY8O+mQN1vj1T8+pIPUv+kjAgMBAAGj
EDAOMAwGA1UdEwQFMAMBAf8wDQYJKoZIhvcNAQEFBQADggEBAAWNQbW4f9U4lwE/
+V2DnspUn/+RBINrn18nvsK3S7fs+BEoFKa0WY19VxC0CARW/8ljMttqsijbKCeE
yVPg3kxFtAE3LScGQR+F1mXGoyE8oOvmICvFSVfy5CfJIMfdjjtT8RcrUvGycObt
xVpM3yQWltYgQVEbsa/FOURs3bc6FgUGiaXIyBgDmFo+HyJE5Wj7vj43Q1ID+J4h
yx4pTwr/Mw+GO7WkM3OJqQeRPuVBl9RGwJhDnrzZ8kofs1KbSH58MTnUnHe7eCeb
MlabsrgN4+rHwQPQKUaps7hi2ZEmpq+4wj4o56Dd9AYcdQ/1n1KwUfz5Qew+LZXc
q3y8CtU=
-----END CERTIFICATE-----
