Certificate:
    Data:
        Version: 3 (0x2)
        Serial Number: 1 (0x1)
        Signature Algorithm: sha1WithRSAEncryption
        Issuer: OU=Root Certification Authority, CN=ca3.pem
        Validity
            Not Before: Dec  4 13:26:13 2013 GMT
            Not After : Jun  2 13:26:13 2033 GMT
        Subject: OU=Cert, CN=cert0.pem
        Subject Public Key Info:
            Public Key Algorithm: rsaEncryption
                Public-Key: (2048 bit)
                Modulus:
                    00:bf:6d:e1:6a:22:df:a9:d1:75:d7:4e:8f:a1:cf:
                    81:3b:83:9f:35:2b:ea:a1:37:ba:37:9f:45:fc:67:
                    44:88:25:34:32:e7:79:8f:bf:6b:9f:68:ee:9a:38:
                    c1:ea:ce:52:d6:b4:74:4f:a9:80:d0:3e:66:24:3f:
                    90:d0:86:7b:b3:40:ea:38:22:19:21:a1:dc:d8:ee:
                    39:80:66:af:fc:47:ad:30:e1:a7:c9:fe:9c:58:aa:
                    86:98:96:41:48:16:01:e5:0b:71:c3:d0:10:79:94:
                    50:e6:49:74:f9:8f:77:34:cc:a0:dd:a5:7b:b5:d3:
                    9d:d6:1f:71:5a:42:68:6d:9b:54:40:ad:f0:45:5e:
                    48:e3:07:ad:08:23:91:2c:01:f9:08:b5:53:f7:f2:
                    07:d9:89:41:ba:85:45:48:98:b9:7e:fe:47:6d:55:
                    f6:11:c5:20:55:cc:da:fb:d8:92:62:02:16:31:d3:
                    18:fb:b0:93:40:5a:78:17:51:fe:62:2e:68:fb:d9:
                    3f:f3:20:9a:ea:28:fc:1d:28:be:8d:1c:34:2b:07:
                    47:17:5f:c6:97:df:72:1c:88:a0:02:37:13:0e:44:
                    c1:7c:db:dd:8e:a9:59:54:a6:46:4b:c8:d8:03:39:
                    6e:15:31:a8:d6:9b:8d:72:89:6b:4b:eb:9d:26:14:
                    37:47
                Exponent: 65537 (0x10001)
        X509v3 extensions:
            X509v3 Basic Constraints: 
                CA:TRUE
    Signature Algorithm: sha1WithRSAEncryption
        99:8f:67:14:00:32:06:9b:bf:42:31:92:5d:bf:02:a0:b0:e6:
        67:11:c2:37:89:29:84:db:20:00:10:55:bf:14:31:1b:32:e9:
        e5:26:4f:c1:52:81:66:6c:92:02:c1:32:69:27:22:b0:72:d5:
        62:d0:3e:93:91:b7:c3:8b:0e:e9:8c:c1:d9:d7:59:b1:ca:1e:
        f2:11:bb:e9:4f:2f:e6:45:05:4c:30:9e:c2:59:07:ff:e5:e6:
        8c:d9:63:ae:12:e2:55:d9:9b:99:7b:0e:1d:96:bc:b0:5b:d9:
        10:e7:f6:06:45:a0:66:c8:fa:2d:df:c0:5b:73:98:ee:bb:82:
        8b:ad:67:70:98:6b:2c:a3:ad:4a:a6:79:18:81:3c:2b:dc:79:
        f4:de:aa:d4:fe:3e:b3:fc:32:12:45:9a:90:48:70:e2:ed:65:
        b2:59:1d:1c:c2:3a:e3:2d:0d:4b:3c:33:23:1d:80:9b:8b:1c:
        d1:48:5d:c3:6e:58:49:7a:b3:4b:70:86:a5:31:b0:e6:d5:82:
        07:3c:6f:43:60:f1:b3:b4:39:7c:40:45:d7:a8:0c:5f:81:a5:
        c6:86:14:59:0e:6c:b2:88:05:7a:85:ef:6f:5c:e7:a1:89:c9:
        29:95:5f:ba:7e:03:e4:66:d4:11:23:9c:9f:72:f8:00:b2:5c:
        a0:46:09:e8
-----BEGIN CERTIFICATE-----
MIIC5zCCAc+gAwIBAgIBATANBgkqhkiG9w0BAQUFADA5MSUwIwYDVQQLDBxSb290
IENlcnRpZmljYXRpb24gQXV0aG9yaXR5MRAwDgYDVQQDDAdjYTMucGVtMB4XDTEz
MTIwNDEzMjYxM1oXDTMzMDYwMjEzMjYxM1owIzENMAsGA1UECwwEQ2VydDESMBAG
A1UEAwwJY2VydDAucGVtMIIBIjANBgkqhkiG9w0BAQEFAAOCAQ8AMIIBCgKCAQEA
v23haiLfqdF1106Poc+BO4OfNSvqoTe6N59F/GdEiCU0Mud5j79rn2jumjjB6s5S
1rR0T6mA0D5mJD+Q0IZ7s0DqOCIZIaHc2O45gGav/EetMOGnyf6cWKqGmJZBSBYB
5Qtxw9AQeZRQ5kl0+Y93NMyg3aV7tdOd1h9xWkJobZtUQK3wRV5I4wetCCORLAH5
CLVT9/IH2YlBuoVFSJi5fv5HbVX2EcUgVcza+9iSYgIWMdMY+7CTQFp4F1H+Yi5o
+9k/8yCa6ij8HSi+jRw0KwdHF1/Gl99yHIigAjcTDkTBfNvdjqlZVKZGS8jYAzlu
FTGo1puNcolrS+udJhQ3RwIDAQABoxAwDjAMBgNVHRMEBTADAQH/MA0GCSqGSIb3
DQEBBQUAA4IBAQCZj2cUADIGm79CMZJdvwKgsOZnEcI3iSmE2yAAEFW/FDEbMunl
Jk/BUoFmbJICwTJpJyKwctVi0D6TkbfDiw7pjMHZ11mxyh7yEbvpTy/mRQVMMJ7C
WQf/5eaM2WOuEuJV2ZuZew4dlrywW9kQ5/YGRaBmyPot38Bbc5juu4KLrWdwmGss
o61KpnkYgTwr3Hn03qrU/j6z/DISRZqQSHDi7WWyWR0cwjrjLQ1LPDMjHYCbixzR
SF3DblhJerNLcIalMbDm1YIHPG9DYPGztDl8QEXXqAxfgaXGhhRZDmyyiAV6he9v
XOehickplV+6fgPkZtQRI5yfcvgAslygRgno
-----END CERTIFICATE-----
