Certificate:
    Data:
        Version: 3 (0x2)
        Serial Number: 1 (0x1)
        Signature Algorithm: sha1WithRSAEncryption
        Issuer: OU=Cert, CN=cert1.pem
        Validity
            Not Before: Dec  4 13:26:13 2013 GMT
            Not After : Jun  2 13:26:13 2033 GMT
        Subject: OU=Cert, CN=cert2.pem
        Subject Public Key Info:
            Public Key Algorithm: rsaEncryption
                Public-Key: (2048 bit)
                Modulus:
                    00:bd:bc:80:34:96:c5:ea:6f:81:aa:91:be:f5:32:
                    d9:8a:9f:02:67:b0:45:1c:3d:68:df:89:7d:af:be:
                    fc:69:d4:1d:0f:72:ae:c8:4f:2c:f4:e2:04:b3:28:
                    db:b9:05:ee:d7:87:c7:87:3f:76:b9:c7:8e:57:ec:
                    4a:c1:e3:8b:b4:14:d4:a3:a5:13:16:b7:18:3a:97:
                    5c:cd:c6:d6:aa:54:88:29:b1:75:d2:9d:2e:29:ef:
                    e5:5c:50:46:02:13:b2:d7:1a:2e:38:50:cc:2c:fc:
                    62:fa:61:61:f7:86:18:a9:c9:b9:af:c0:0e:f9:d3:
                    88:1b:91:27:b0:e6:e6:16:98:fd:9b:f6:c4:e2:76:
                    d2:63:da:77:21:b0:8d:a1:c8:d9:ce:84:3c:57:af:
                    99:19:7b:01:8c:f1:ae:e1:7c:ac:13:a6:03:a0:ab:
                    a2:f6:ea:7d:de:b2:43:12:e5:23:ad:df:48:2e:bc:
                    f2:76:96:2b:a0:1c:dc:60:84:d7:de:68:9e:2f:5c:
                    f6:df:49:4e:05:8d:07:39:27:5e:49:45:88:86:33:
                    16:1a:5f:b1:a2:d1:78:ff:30:36:25:b8:05:c1:8a:
                    dc:b4:6c:b6:3e:52:39:1e:61:dc:eb:bb:da:49:1d:
                    d1:1a:06:76:22:ab:94:07:c7:0e:58:cc:e0:c6:ff:
                    8c:d3
                Exponent: 65537 (0x10001)
        X509v3 extensions:
            X509v3 Basic Constraints: 
                CA:TRUE
    Signature Algorithm: sha1WithRSAEncryption
        6f:02:24:5d:60:3b:76:e8:aa:a5:37:d7:75:18:72:fd:e0:9a:
        ce:aa:50:5e:e6:83:93:1b:2d:c4:47:5b:d6:d4:8d:d2:ba:6f:
        af:a7:a8:78:6a:06:78:7e:9d:83:29:7d:9b:8a:f7:8d:7b:76:
        d8:0d:0b:7e:b9:bd:15:e8:16:9a:c5:4b:48:c7:26:ba:37:fe:
        f3:8f:dd:05:13:38:31:79:1a:f4:24:49:03:6d:f8:53:d7:01:
        44:79:67:ba:6a:d4:40:7d:56:4d:c4:a5:99:aa:a9:da:84:44:
        e8:29:ea:bd:5e:5a:7d:c0:7d:e0:7e:0c:12:85:65:ef:cd:f8:
        b6:56:9e:05:97:d4:48:d7:86:96:75:e6:cc:51:60:7f:eb:ed:
        a4:e0:9e:c6:70:d9:ce:17:8e:41:16:7b:06:3d:c7:33:d3:d9:
        08:8d:17:4e:a5:13:6a:d7:e2:ce:cc:74:ce:14:76:0e:aa:1f:
        8d:f5:c8:ef:a0:34:e4:ed:f8:25:b5:8d:d2:3f:65:c4:75:97:
        6a:ae:0f:02:5e:61:a1:0d:a1:7c:53:fd:10:75:4f:19:71:05:
        6b:26:18:4c:95:85:7f:50:0f:a5:2d:0f:0a:07:a4:aa:ce:df:
        3c:32:47:14:88:73:e1:6b:70:fb:53:23:06:bb:66:91:b8:2a:
        23:9f:63:ab:40:a5:71:3d:c6:0a:d3:e5:a2:c5:c8:52:36:40:
        47:3c:6b:16:0c:08:d6:77:91:c5:ed:18:87:50:8e:2f:b0:83:
        31:34:12:57:41:56:e8:47:69:cb:37:ea:05:3c:29:a2:b5:a3:
        9a:82:08:ef:fd:2d:86:52:7d:99:eb:23:d6:28:2c:7e:bb:0a:
        d0:c0:6e:73:89:09:2b:13:a5:c8:29:4c:e8:02:82:76:b6:d5:
        61:07:b0:78:c4:57:44:a7:c1:80:4f:51:0c:46:1e:d3:1b:45:
        35:1f:34:f3:e5:4f:88:2e:cd:ee:ac:98:70:35:62:4b:ca:b1:
        db:37:a6:bb:24:b6:2c:71:d1:29:06:8f:7b:4b:e6:bf:86:57:
        23:1a:ce:9a:c5:25:b1:fe:fc:95:4f:5b:f0:9a:32:25:07:b3:
        25:87:55:e9:ed:e4:d3:76:53:f3:73:62:c7:63:ad:58:c3:8f:
        ee:8e:5e:4f:4a:3f:d2:a9:aa:62:a7:37:01:a8:22:de:54:e9:
        06:10:7a:65:a9:06:78:47:c0:52:b4:c5:a1:a1:c1:2f:0c:f9:
        14:88:31:65:fc:9f:5e:b2:09:8a:35:db:a6:4d:7b:34:e2:46:
        97:b3:93:11:d6:a3:53:49:50:b0:5e:2a:64:a7:18:a0:0f:b1:
        14:78:dd:35:61:89:73:2d
-----BEGIN CERTIFICATE-----
MIID0TCCAbmgAwIBAgIBATANBgkqhkiG9w0BAQUFADAjMQ0wCwYDVQQLDARDZXJ0
MRIwEAYDVQQDDAljZXJ0MS5wZW0wHhcNMTMxMjA0MTMyNjEzWhcNMzMwNjAyMTMy
NjEzWjAjMQ0wCwYDVQQLDARDZXJ0MRIwEAYDVQQDDAljZXJ0Mi5wZW0wggEiMA0G
CSqGSIb3DQEBAQUAA4IBDwAwggEKAoIBAQC9vIA0lsXqb4Gqkb71MtmKnwJnsEUc
PWjfiX2vvvxp1B0Pcq7ITyz04gSzKNu5Be7Xh8eHP3a5x45X7ErB44u0FNSjpRMW
txg6l1zNxtaqVIgpsXXSnS4p7+VcUEYCE7LXGi44UMws/GL6YWH3hhipybmvwA75
04gbkSew5uYWmP2b9sTidtJj2nchsI2hyNnOhDxXr5kZewGM8a7hfKwTpgOgq6L2
6n3eskMS5SOt30guvPJ2liugHNxghNfeaJ4vXPbfSU4FjQc5J15JRYiGMxYaX7Gi
0Xj/MDYluAXBity0bLY+UjkeYdzru9pJHdEaBnYiq5QHxw5YzODG/4zTAgMBAAGj
EDAOMAwGA1UdEwQFMAMBAf8wDQYJKoZIhvcNAQEFBQADggIBAG8CJF1gO3boqqU3
13UYcv3gms6qUF7mg5MbLcRHW9bUjdK6b6+nqHhqBnh+nYMpfZuK9417dtgNC365
vRXoFprFS0jHJro3/vOP3QUTODF5GvQkSQNt+FPXAUR5Z7pq1EB9Vk3EpZmqqdqE
ROgp6r1eWn3AfeB+DBKFZe/N+LZWngWX1EjXhpZ15sxRYH/r7aTgnsZw2c4XjkEW
ewY9xzPT2QiNF06lE2rX4s7MdM4Udg6qH431yO+gNOTt+CW1jdI/ZcR1l2quDwJe
YaENoXxT/RB1TxlxBWsmGEyVhX9QD6UtDwoHpKrO3zwyRxSIc+FrcPtTIwa7ZpG4
KiOfY6tApXE9xgrT5aLFyFI2QEc8axYMCNZ3kcXtGIdQji+wgzE0EldBVuhHacs3
6gU8KaK1o5qCCO/9LYZSfZnrI9YoLH67CtDAbnOJCSsTpcgpTOgCgna21WEHsHjE
V0SnwYBPUQxGHtMbRTUfNPPlT4guze6smHA1YkvKsds3prsktixx0SkGj3tL5r+G
VyMazprFJbH+/JVPW/CaMiUHsyWHVent5NN2U/NzYsdjrVjDj+6OXk9KP9KpqmKn
NwGoIt5U6QYQemWpBnhHwFK0xaGhwS8M+RSIMWX8n16yCYo126ZNezTiRpezkxHW
o1NJULBeKmSnGKAPsRR43TVhiXMt
-----END CERTIFICATE-----
